target datalayout = "e-m:e-p270:32:32-p271:32:32-p272:64:64-i64:64-i128:128-f80:128-n8:16:32:64-S128"
target triple = "x86_64-pc-linux-gnu"

; Function Attrs: nounwind uwtable
define internal void @max_fun(ptr noundef %0, ptr noundef %1, ptr noundef %2, i32 noundef %3) #0 {
  %5 = alloca ptr, align 8
  %6 = alloca ptr, align 8
  %7 = alloca ptr, align 8
  %8 = alloca i32, align 4
  %9 = alloca i32, align 4
  store ptr %0, ptr %5, align 8, !tbaa !72
  store ptr %1, ptr %6, align 8, !tbaa !72
  store ptr %2, ptr %7, align 8, !tbaa !72
  store i32 %3, ptr %8, align 4, !tbaa !24
  call void @llvm.lifetime.start.p0(i64 4, ptr %9) #12
  store i32 0, ptr %9, align 4, !tbaa !24
  br label %10

10:                                               ; preds = %50, %4
  %11 = load i32, ptr %9, align 4, !tbaa !24
  %12 = load i32, ptr %8, align 4, !tbaa !24
  %13 = icmp slt i32 %11, %12
  br i1 %13, label %15, label %14

14:                                               ; preds = %10
  call void @llvm.lifetime.end.p0(i64 4, ptr %9) #12
  br label %53

15:                                               ; preds = %10
  %16 = load ptr, ptr %6, align 8, !tbaa !72
  %17 = load i32, ptr %9, align 4, !tbaa !24
  %18 = sext i32 %17 to i64
  %19 = getelementptr inbounds i8, ptr %16, i64 %18
  %20 = load i8, ptr %19, align 1, !tbaa !109
  %21 = zext i8 %20 to i32
  %22 = load ptr, ptr %7, align 8, !tbaa !72
  %23 = load i32, ptr %9, align 4, !tbaa !24
  %24 = sext i32 %23 to i64
  %25 = getelementptr inbounds i8, ptr %22, i64 %24
  %26 = load i8, ptr %25, align 1, !tbaa !109
  %27 = zext i8 %26 to i32
  %28 = icmp sgt i32 %21, %27
  br i1 %28, label %29, label %36

29:                                               ; preds = %15
  %30 = load ptr, ptr %6, align 8, !tbaa !72
  %31 = load i32, ptr %9, align 4, !tbaa !24
  %32 = sext i32 %31 to i64
  %33 = getelementptr inbounds i8, ptr %30, i64 %32
  %34 = load i8, ptr %33, align 1, !tbaa !109
  %35 = zext i8 %34 to i32
  br label %43

36:                                               ; preds = %15
  %37 = load ptr, ptr %7, align 8, !tbaa !72
  %38 = load i32, ptr %9, align 4, !tbaa !24
  %39 = sext i32 %38 to i64
  %40 = getelementptr inbounds i8, ptr %37, i64 %39
  %41 = load i8, ptr %40, align 1, !tbaa !109
  %42 = zext i8 %41 to i32
  br label %43

43:                                               ; preds = %36, %29
  %44 = phi i32 [ %35, %29 ], [ %42, %36 ]
  %45 = trunc i32 %44 to i8
  %46 = load ptr, ptr %5, align 8, !tbaa !72
  %47 = load i32, ptr %9, align 4, !tbaa !24
  %48 = sext i32 %47 to i64
  %49 = getelementptr inbounds i8, ptr %46, i64 %48
  store i8 %45, ptr %49, align 1, !tbaa !109
  br label %50

50:                                               ; preds = %43
  %51 = load i32, ptr %9, align 4, !tbaa !24
  %52 = add nsw i32 %51, 1
  store i32 %52, ptr %9, align 4, !tbaa !24
  br label %10, !llvm.loop !135

53:                                               ; preds = %14
  ret void
}